; ModuleID = '17/805.c'
source_filename = "17/805.c"
target datalayout = "e-m:e-p270:32:32-p271:32:32-p272:64:64-i64:64-f80:128-n8:16:32:64-S128"
target triple = "x86_64-pc-linux-gnu"

@.str = private unnamed_addr constant [4 x i8] c"%s\0A\00", align 1
@.str.1 = private unnamed_addr constant [2 x i8] c"?\00", align 1
@.str.2 = private unnamed_addr constant [2 x i8] c"$\00", align 1
@.str.3 = private unnamed_addr constant [2 x i8] c" \00", align 1
@.str.4 = private unnamed_addr constant [2 x i8] c"\0A\00", align 1

; Function Attrs: noinline nounwind uwtable
define dso_local i32 @main() #0 {
  %1 = alloca i32, align 4
  %2 = alloca [101 x i8], align 16
  %3 = alloca i8, align 1
  %4 = alloca i8, align 1
  %5 = alloca [101 x i8], align 16
  %6 = alloca i32, align 4
  %7 = alloca i32, align 4
  %8 = alloca i32, align 4
  %9 = alloca i32, align 4
  store i32 0, i32* %1, align 4
  br label %10

10:                                               ; preds = %103, %0
  %11 = getelementptr inbounds [101 x i8], [101 x i8]* %2, i64 0, i64 0
  %12 = call i32 (i8*, ...) bitcast (i32 (...)* @gets to i32 (i8*, ...)*)(i8* %11)
  %13 = icmp ne i32 %12, 0
  br i1 %13, label %14, label %105

14:                                               ; preds = %10
  %15 = getelementptr inbounds [101 x i8], [101 x i8]* %5, i64 0, i64 0
  %16 = getelementptr inbounds [101 x i8], [101 x i8]* %2, i64 0, i64 0
  %17 = call i8* @strcpy(i8* %15, i8* %16) #4
  %18 = getelementptr inbounds [101 x i8], [101 x i8]* %2, i64 0, i64 0
  %19 = call i64 @strlen(i8* %18) #5
  %20 = trunc i64 %19 to i32
  store i32 %20, i32* %6, align 4
  store i32 0, i32* %7, align 4
  br label %21

21:                                               ; preds = %68, %14
  %22 = load i32, i32* %7, align 4
  %23 = load i32, i32* %6, align 4
  %24 = icmp slt i32 %22, %23
  br i1 %24, label %25, label %71

25:                                               ; preds = %21
  store i32 0, i32* %9, align 4
  %26 = load i32, i32* %7, align 4
  %27 = sext i32 %26 to i64
  %28 = getelementptr inbounds [101 x i8], [101 x i8]* %2, i64 0, i64 %27
  %29 = load i8, i8* %28, align 1
  %30 = sext i8 %29 to i32
  %31 = icmp eq i32 %30, 41
  br i1 %31, label %32, label %67

32:                                               ; preds = %25
  %33 = load i32, i32* %7, align 4
  %34 = sub nsw i32 %33, 1
  store i32 %34, i32* %8, align 4
  br label %35

35:                                               ; preds = %49, %32
  %36 = load i32, i32* %8, align 4
  %37 = icmp sge i32 %36, 0
  br i1 %37, label %38, label %52

38:                                               ; preds = %35
  %39 = load i32, i32* %8, align 4
  %40 = sext i32 %39 to i64
  %41 = getelementptr inbounds [101 x i8], [101 x i8]* %2, i64 0, i64 %40
  %42 = load i8, i8* %41, align 1
  %43 = sext i8 %42 to i32
  %44 = icmp eq i32 %43, 40
  br i1 %44, label %45, label %48

45:                                               ; preds = %38
  %46 = load i32, i32* %9, align 4
  %47 = add nsw i32 %46, 1
  store i32 %47, i32* %9, align 4
  br label %52

48:                                               ; preds = %38
  br label %49

49:                                               ; preds = %48
  %50 = load i32, i32* %8, align 4
  %51 = add nsw i32 %50, -1
  store i32 %51, i32* %8, align 4
  br label %35

52:                                               ; preds = %45, %35
  %53 = load i32, i32* %9, align 4
  %54 = icmp eq i32 %53, 1
  br i1 %54, label %55, label %62

55:                                               ; preds = %52
  %56 = load i32, i32* %7, align 4
  %57 = sext i32 %56 to i64
  %58 = getelementptr inbounds [101 x i8], [101 x i8]* %2, i64 0, i64 %57
  store i8 32, i8* %58, align 1
  %59 = load i32, i32* %8, align 4
  %60 = sext i32 %59 to i64
  %61 = getelementptr inbounds [101 x i8], [101 x i8]* %2, i64 0, i64 %60
  store i8 32, i8* %61, align 1
  br label %66

62:                                               ; preds = %52
  %63 = load i32, i32* %7, align 4
  %64 = sext i32 %63 to i64
  %65 = getelementptr inbounds [101 x i8], [101 x i8]* %2, i64 0, i64 %64
  store i8 63, i8* %65, align 1
  br label %66

66:                                               ; preds = %62, %55
  br label %67

67:                                               ; preds = %66, %25
  br label %68

68:                                               ; preds = %67
  %69 = load i32, i32* %7, align 4
  %70 = add nsw i32 %69, 1
  store i32 %70, i32* %7, align 4
  br label %21

71:                                               ; preds = %21
  %72 = getelementptr inbounds [101 x i8], [101 x i8]* %5, i64 0, i64 0
  %73 = call i32 (i8*, ...) @printf(i8* getelementptr inbounds ([4 x i8], [4 x i8]* @.str, i64 0, i64 0), i8* %72)
  store i32 0, i32* %7, align 4
  br label %74

74:                                               ; preds = %100, %71
  %75 = load i32, i32* %7, align 4
  %76 = load i32, i32* %6, align 4
  %77 = icmp slt i32 %75, %76
  br i1 %77, label %78, label %103

78:                                               ; preds = %74
  %79 = load i32, i32* %7, align 4
  %80 = sext i32 %79 to i64
  %81 = getelementptr inbounds [101 x i8], [101 x i8]* %2, i64 0, i64 %80
  %82 = load i8, i8* %81, align 1
  %83 = sext i8 %82 to i32
  %84 = icmp eq i32 %83, 63
  br i1 %84, label %85, label %87

85:                                               ; preds = %78
  %86 = call i32 (i8*, ...) @printf(i8* getelementptr inbounds ([2 x i8], [2 x i8]* @.str.1, i64 0, i64 0))
  br label %99

87:                                               ; preds = %78
  %88 = load i32, i32* %7, align 4
  %89 = sext i32 %88 to i64
  %90 = getelementptr inbounds [101 x i8], [101 x i8]* %2, i64 0, i64 %89
  %91 = load i8, i8* %90, align 1
  %92 = sext i8 %91 to i32
  %93 = icmp eq i32 %92, 40
  br i1 %93, label %94, label %96

94:                                               ; preds = %87
  %95 = call i32 (i8*, ...) @printf(i8* getelementptr inbounds ([2 x i8], [2 x i8]* @.str.2, i64 0, i64 0))
  br label %98

96:                                               ; preds = %87
  %97 = call i32 (i8*, ...) @printf(i8* getelementptr inbounds ([2 x i8], [2 x i8]* @.str.3, i64 0, i64 0))
  br label %98

98:                                               ; preds = %96, %94
  br label %99

99:                                               ; preds = %98, %85
  br label %100

100:                                              ; preds = %99
  %101 = load i32, i32* %7, align 4
  %102 = add nsw i32 %101, 1
  store i32 %102, i32* %7, align 4
  br label %74

103:                                              ; preds = %74
  %104 = call i32 (i8*, ...) @printf(i8* getelementptr inbounds ([2 x i8], [2 x i8]* @.str.4, i64 0, i64 0))
  br label %10

105:                                              ; preds = %10
  ret i32 0
}

declare dso_local i32 @gets(...) #1

; Function Attrs: nounwind
declare dso_local i8* @strcpy(i8*, i8*) #2

; Function Attrs: nounwind readonly
declare dso_local i64 @strlen(i8*) #3

declare dso_local i32 @printf(i8*, ...) #1


!llvm.module.flags = !{!0}
!llvm.ident = !{!1}

!0 = !{i32 1, !"wchar_size", i32 4}
!1 = !{!"clang version 10.0.0-4ubuntu1 "}
