; ModuleID = 'source-C-CXX/16/805.c'
source_filename = "source-C-CXX/16/805.c"
target datalayout = "e-m:e-p270:32:32-p271:32:32-p272:64:64-i64:64-f80:128-n8:16:32:64-S128"
target triple = "x86_64-pc-linux-gnu"

; Function Attrs: nounwind sspstrong uwtable
define dso_local i32 @main() local_unnamed_addr #0 {
  %1 = alloca [101 x i8], align 16
  %2 = alloca [101 x i8], align 16
  %3 = getelementptr inbounds [101 x i8], [101 x i8]* %1, i64 0, i64 0
  call void @llvm.lifetime.start.p0i8(i64 101, i8* nonnull %3) #6
  %4 = getelementptr inbounds [101 x i8], [101 x i8]* %2, i64 0, i64 0
  call void @llvm.lifetime.start.p0i8(i64 101, i8* nonnull %4) #6
  %5 = call i32 (i8*, ...) bitcast (i32 (...)* @gets to i32 (i8*, ...)*)(i8* nonnull %3) #6
  %6 = icmp eq i32 %5, 0
  br i1 %6, label %55, label %7

7:                                                ; preds = %0, %51
  %8 = call i8* @strcpy(i8* noundef nonnull %4, i8* noundef nonnull %3) #6
  %9 = call i64 @strlen(i8* noundef nonnull %3) #7
  %10 = trunc i64 %9 to i32
  %11 = icmp sgt i32 %10, 0
  br i1 %11, label %14, label %12

12:                                               ; preds = %7
  %13 = call i32 @puts(i8* nonnull %4)
  br label %51

14:                                               ; preds = %7
  %15 = and i64 %9, 4294967295
  br label %16

16:                                               ; preds = %14, %33
  %17 = phi i64 [ 0, %14 ], [ %34, %33 ]
  %18 = getelementptr inbounds [101 x i8], [101 x i8]* %1, i64 0, i64 %17
  %19 = load i8, i8* %18, align 1, !tbaa !5
  %20 = icmp eq i8 %19, 41
  br i1 %20, label %21, label %33

21:                                               ; preds = %16, %25
  %22 = phi i64 [ %23, %25 ], [ %17, %16 ]
  %23 = add nsw i64 %22, -1
  %24 = icmp sgt i64 %22, 0
  br i1 %24, label %25, label %32

25:                                               ; preds = %21
  %26 = getelementptr inbounds [101 x i8], [101 x i8]* %1, i64 0, i64 %23
  %27 = load i8, i8* %26, align 1, !tbaa !5
  %28 = icmp eq i8 %27, 40
  br i1 %28, label %29, label %21, !llvm.loop !8

29:                                               ; preds = %25
  %30 = and i64 %23, 4294967295
  %31 = getelementptr inbounds [101 x i8], [101 x i8]* %1, i64 0, i64 %30
  store i8 32, i8* %18, align 1, !tbaa !5
  store i8 32, i8* %31, align 1, !tbaa !5
  br label %33

32:                                               ; preds = %21
  store i8 63, i8* %18, align 1, !tbaa !5
  br label %33

33:                                               ; preds = %16, %32, %29
  %34 = add nuw nsw i64 %17, 1
  %35 = icmp eq i64 %34, %15
  br i1 %35, label %36, label %16, !llvm.loop !10

36:                                               ; preds = %33
  %37 = call i32 @puts(i8* nonnull %4)
  br i1 %11, label %38, label %51

38:                                               ; preds = %36
  %39 = and i64 %9, 4294967295
  br label %40

40:                                               ; preds = %38, %40
  %41 = phi i64 [ 0, %38 ], [ %49, %40 ]
  %42 = getelementptr inbounds [101 x i8], [101 x i8]* %1, i64 0, i64 %41
  %43 = load i8, i8* %42, align 1, !tbaa !5
  %44 = icmp eq i8 %43, 40
  %45 = select i1 %44, i32 36, i32 32
  %46 = icmp eq i8 %43, 63
  %47 = select i1 %46, i32 63, i32 %45
  %48 = call i32 @putchar(i32 %47)
  %49 = add nuw nsw i64 %41, 1
  %50 = icmp eq i64 %49, %39
  br i1 %50, label %51, label %40, !llvm.loop !11

51:                                               ; preds = %40, %12, %36
  %52 = call i32 @putchar(i32 10)
  %53 = call i32 (i8*, ...) bitcast (i32 (...)* @gets to i32 (i8*, ...)*)(i8* nonnull %3) #6
  %54 = icmp eq i32 %53, 0
  br i1 %54, label %55, label %7, !llvm.loop !12

55:                                               ; preds = %51, %0
  call void @llvm.lifetime.end.p0i8(i64 101, i8* nonnull %4) #6
  call void @llvm.lifetime.end.p0i8(i64 101, i8* nonnull %3) #6
  ret i32 0
}

; Function Attrs: argmemonly mustprogress nofree nosync nounwind willreturn
declare void @llvm.lifetime.start.p0i8(i64 immarg, i8* nocapture) #1

declare i32 @gets(...) local_unnamed_addr #2

; Function Attrs: argmemonly mustprogress nofree nounwind willreturn
declare i8* @strcpy(i8* noalias returned writeonly, i8* noalias nocapture readonly) local_unnamed_addr #3

; Function Attrs: argmemonly mustprogress nofree nounwind readonly willreturn
declare i64 @strlen(i8* nocapture) local_unnamed_addr #4

; Function Attrs: argmemonly mustprogress nofree nosync nounwind willreturn
declare void @llvm.lifetime.end.p0i8(i64 immarg, i8* nocapture) #1

; Function Attrs: nofree nounwind
declare noundef i32 @puts(i8* nocapture noundef readonly) local_unnamed_addr #5

; Function Attrs: nofree nounwind
declare noundef i32 @putchar(i32 noundef) local_unnamed_addr #5


!llvm.module.flags = !{!0, !1, !2, !3}
!llvm.ident = !{!4}

!0 = !{i32 1, !"wchar_size", i32 4}
!1 = !{i32 7, !"PIC Level", i32 2}
!2 = !{i32 7, !"PIE Level", i32 2}
!3 = !{i32 7, !"uwtable", i32 1}
!4 = !{!"clang version 13.0.0"}
!5 = !{!6, !6, i64 0}
!6 = !{!"omnipotent char", !7, i64 0}
!7 = !{!"Simple C/C++ TBAA"}
!8 = distinct !{!8, !9}
!9 = !{!"llvm.loop.mustprogress"}
!10 = distinct !{!10, !9}
!11 = distinct !{!11, !9}
!12 = distinct !{!12, !9}
